target datalayout = "e-m:e-p270:32:32-p271:32:32-p272:64:64-i64:64-i128:128-f80:128-n8:16:32:64-S128"
target triple = "x86_64-pc-linux-gnu"

; Function Attrs: nounwind uwtable
define i32 @dt_develop_blend_params_is_all_zero(ptr noundef %0, i64 noundef %1) #0 {
  %3 = alloca i32, align 4
  %4 = alloca ptr, align 8
  %5 = alloca i64, align 8
  %6 = alloca ptr, align 8
  %7 = alloca i64, align 8
  %8 = alloca i32, align 4
  store ptr %0, ptr %4, align 8, !tbaa !83
  store i64 %1, ptr %5, align 8, !tbaa !52
  call void @llvm.lifetime.start.p0(i64 8, ptr %6) #10
  %9 = load ptr, ptr %4, align 8, !tbaa !83
  store ptr %9, ptr %6, align 8, !tbaa !160
  call void @llvm.lifetime.start.p0(i64 8, ptr %7) #10
  store i64 0, ptr %7, align 8, !tbaa !52
  br label %10

10:                                               ; preds = %23, %2
  %11 = load i64, ptr %7, align 8, !tbaa !52
  %12 = load i64, ptr %5, align 8, !tbaa !52
  %13 = icmp ult i64 %11, %12
  br i1 %13, label %15, label %14

14:                                               ; preds = %10
  store i32 2, ptr %8, align 4
  br label %26

15:                                               ; preds = %10
  %16 = load ptr, ptr %6, align 8, !tbaa !160
  %17 = load i64, ptr %7, align 8, !tbaa !52
  %18 = getelementptr inbounds nuw i8, ptr %16, i64 %17
  %19 = load i8, ptr %18, align 1, !tbaa !177
  %20 = icmp ne i8 %19, 0
  br i1 %20, label %21, label %22

21:                                               ; preds = %15
  store i32 0, ptr %3, align 4
  store i32 1, ptr %8, align 4
  br label %26

22:                                               ; preds = %15
  br label %23

23:                                               ; preds = %22
  %24 = load i64, ptr %7, align 8, !tbaa !52
  %25 = add i64 %24, 1
  store i64 %25, ptr %7, align 8, !tbaa !52
  br label %10

26:                                               ; preds = %21, %14
  call void @llvm.lifetime.end.p0(i64 8, ptr %7) #10
  %27 = load i32, ptr %8, align 4
  switch i32 %27, label %29 [
    i32 2, label %28
  ]

28:                                               ; preds = %26
  store i32 1, ptr %3, align 4
  store i32 1, ptr %8, align 4
  br label %29

29:                                               ; preds = %28, %26
  call void @llvm.lifetime.end.p0(i64 8, ptr %6) #10
  %30 = load i32, ptr %3, align 4
  ret i32 %30
}