; Function Attrs: nofree norecurse nosync nounwind memory(argmem: read) uwtable
define range(i32 0, 2) i32 @dt_develop_blend_params_is_all_zero(ptr noundef readonly captures(none) %0, i64 noundef %1) local_unnamed_addr #12 {
  %.not910 = icmp eq i64 %1, 0
  br i1 %.not910, label %._crit_edge, label %.lr.ph

3:                                                ; preds = %.lr.ph
  %4 = add nuw i64 %.0711, 1
  %exitcond.not = icmp eq i64 %4, %1
  br i1 %exitcond.not, label %._crit_edge, label %.lr.ph

.lr.ph:                                           ; preds = %2, %3
  %.0711 = phi i64 [ %4, %3 ], [ 0, %2 ]
  %5 = getelementptr inbounds nuw i8, ptr %0, i64 %.0711
  %6 = load i8, ptr %5, align 1, !tbaa !158
  %.not = icmp eq i8 %6, 0
  br i1 %.not, label %3, label %._crit_edge

._crit_edge:                                      ; preds = %3, %.lr.ph, %2
  %.not9.lcssa = phi i32 [ 1, %2 ], [ 0, %.lr.ph ], [ 1, %3 ]
  ret i32 %.not9.lcssa
}